target datalayout = "e-m:e-p270:32:32-p271:32:32-p272:64:64-i64:64-i128:128-f80:128-n8:16:32:64-S128"
target triple = "x86_64-pc-linux-gnu"

%"class.std::__cxx11::basic_string" = type { %"struct.std::__cxx11::basic_string<char>::_Alloc_hider", i64, %union.anon }
%"struct.std::__cxx11::basic_string<char>::_Alloc_hider" = type { ptr }
%union.anon = type { i64, [8 x i8] }
%"class.std::allocator" = type { i8 }

@.str.3 = private unnamed_addr constant [137 x i8] c"generated/home/dtcxzyw/WorkSpace/Projects/compilers/llvm-opt-benchmark/bench/opencv/opencv/modules/gapi/include/opencv2/gapi/imgproc.hpp\00", align 1
@.str.62 = private unnamed_addr constant [10 x i8] c"chan == 1\00", align 1
@__func__._ZN12_GLOBAL__N_127validateFindingContoursMetaEiii = private unnamed_addr constant [28 x i8] c"validateFindingContoursMeta\00", align 1
@.str.63 = private unnamed_addr constant [34 x i8] c"depth == CV_8U || depth == CV_32S\00", align 1
@.str.64 = private unnamed_addr constant [16 x i8] c"depth == CV_32S\00", align 1
@.str.65 = private unnamed_addr constant [15 x i8] c"depth == CV_8U\00", align 1

; Function Attrs: mustprogress uwtable
define internal void @_ZN12_GLOBAL__N_127validateFindingContoursMetaEiii(i32 noundef %0, i32 noundef %1, i32 noundef %2) #4 personality ptr @__gxx_personality_v0 {
  %4 = alloca i32, align 4
  %5 = alloca i32, align 4
  %6 = alloca i32, align 4
  %7 = alloca %"class.std::__cxx11::basic_string", align 8
  %8 = alloca %"class.std::allocator", align 1
  %9 = alloca ptr, align 8
  %10 = alloca i32, align 4
  %11 = alloca %"class.std::__cxx11::basic_string", align 8
  %12 = alloca %"class.std::allocator", align 1
  %13 = alloca %"class.std::__cxx11::basic_string", align 8
  %14 = alloca %"class.std::allocator", align 1
  %15 = alloca %"class.std::__cxx11::basic_string", align 8
  %16 = alloca %"class.std::allocator", align 1
  store i32 %0, ptr %4, align 4
  store i32 %1, ptr %5, align 4
  store i32 %2, ptr %6, align 4
  br label %17

17:                                               ; preds = %3
  %18 = load i32, ptr %5, align 4
  %19 = icmp eq i32 %18, 1
  br i1 %19, label %20, label %21

20:                                               ; preds = %17
  br label %33

21:                                               ; preds = %17
  call void @_ZNSaIcEC1Ev(ptr noundef nonnull align 1 dereferenceable(1) %8) #3
  invoke void @_ZNSt7__cxx1112basic_stringIcSt11char_traitsIcESaIcEEC1EPKcRKS3_(ptr noundef nonnull align 8 dereferenceable(32) %7, ptr noundef @.str.62, ptr noundef nonnull align 1 dereferenceable(1) %8)
          to label %22 unwind label %24

22:                                               ; preds = %21
  invoke void @_ZN2cv5errorEiRKNSt7__cxx1112basic_stringIcSt11char_traitsIcESaIcEEEPKcS9_i(i32 noundef -215, ptr noundef nonnull align 8 dereferenceable(32) %7, ptr noundef @__func__._ZN12_GLOBAL__N_127validateFindingContoursMetaEiii, ptr noundef @.str.3, i32 noundef 33) #18
          to label %23 unwind label %28

23:                                               ; preds = %22
  unreachable

24:                                               ; preds = %21
  %25 = landingpad { ptr, i32 }
          cleanup
  %26 = extractvalue { ptr, i32 } %25, 0
  store ptr %26, ptr %9, align 8
  %27 = extractvalue { ptr, i32 } %25, 1
  store i32 %27, ptr %10, align 4
  br label %32

28:                                               ; preds = %22
  %29 = landingpad { ptr, i32 }
          cleanup
  %30 = extractvalue { ptr, i32 } %29, 0
  store ptr %30, ptr %9, align 8
  %31 = extractvalue { ptr, i32 } %29, 1
  store i32 %31, ptr %10, align 4
  call void @_ZNSt7__cxx1112basic_stringIcSt11char_traitsIcESaIcEED1Ev(ptr noundef nonnull align 8 dereferenceable(32) %7) #3
  br label %32

32:                                               ; preds = %28, %24
  call void @_ZNSaIcED1Ev(ptr noundef nonnull align 1 dereferenceable(1) %8) #3
  br label %97

33:                                               ; preds = %20
  br label %34

34:                                               ; preds = %33
  %35 = load i32, ptr %6, align 4
  switch i32 %35, label %77 [
    i32 2, label %36
    i32 4, label %58
  ]

36:                                               ; preds = %34
  br label %37

37:                                               ; preds = %36
  %38 = load i32, ptr %4, align 4
  %39 = icmp eq i32 %38, 0
  br i1 %39, label %43, label %40

40:                                               ; preds = %37
  %41 = load i32, ptr %4, align 4
  %42 = icmp eq i32 %41, 4
  br i1 %42, label %43, label %44

43:                                               ; preds = %40, %37
  br label %56

44:                                               ; preds = %40
  call void @_ZNSaIcEC1Ev(ptr noundef nonnull align 1 dereferenceable(1) %12) #3
  invoke void @_ZNSt7__cxx1112basic_stringIcSt11char_traitsIcESaIcEEC1EPKcRKS3_(ptr noundef nonnull align 8 dereferenceable(32) %11, ptr noundef @.str.63, ptr noundef nonnull align 1 dereferenceable(1) %12)
          to label %45 unwind label %47

45:                                               ; preds = %44
  invoke void @_ZN2cv5errorEiRKNSt7__cxx1112basic_stringIcSt11char_traitsIcESaIcEEEPKcS9_i(i32 noundef -215, ptr noundef nonnull align 8 dereferenceable(32) %11, ptr noundef @__func__._ZN12_GLOBAL__N_127validateFindingContoursMetaEiii, ptr noundef @.str.3, i32 noundef 37) #18
          to label %46 unwind label %51

46:                                               ; preds = %45
  unreachable

47:                                               ; preds = %44
  %48 = landingpad { ptr, i32 }
          cleanup
  %49 = extractvalue { ptr, i32 } %48, 0
  store ptr %49, ptr %9, align 8
  %50 = extractvalue { ptr, i32 } %48, 1
  store i32 %50, ptr %10, align 4
  br label %55

51:                                               ; preds = %45
  %52 = landingpad { ptr, i32 }
          cleanup
  %53 = extractvalue { ptr, i32 } %52, 0
  store ptr %53, ptr %9, align 8
  %54 = extractvalue { ptr, i32 } %52, 1
  store i32 %54, ptr %10, align 4
  call void @_ZNSt7__cxx1112basic_stringIcSt11char_traitsIcESaIcEED1Ev(ptr noundef nonnull align 8 dereferenceable(32) %11) #3
  br label %55

55:                                               ; preds = %51, %47
  call void @_ZNSaIcED1Ev(ptr noundef nonnull align 1 dereferenceable(1) %12) #3
  br label %97

56:                                               ; preds = %43
  br label %57

57:                                               ; preds = %56
  br label %96

58:                                               ; preds = %34
  br label %59

59:                                               ; preds = %58
  %60 = load i32, ptr %4, align 4
  %61 = icmp eq i32 %60, 4
  br i1 %61, label %62, label %63

62:                                               ; preds = %59
  br label %75

63:                                               ; preds = %59
  call void @_ZNSaIcEC1Ev(ptr noundef nonnull align 1 dereferenceable(1) %14) #3
  invoke void @_ZNSt7__cxx1112basic_stringIcSt11char_traitsIcESaIcEEC1EPKcRKS3_(ptr noundef nonnull align 8 dereferenceable(32) %13, ptr noundef @.str.64, ptr noundef nonnull align 1 dereferenceable(1) %14)
          to label %64 unwind label %66

64:                                               ; preds = %63
  invoke void @_ZN2cv5errorEiRKNSt7__cxx1112basic_stringIcSt11char_traitsIcESaIcEEEPKcS9_i(i32 noundef -215, ptr noundef nonnull align 8 dereferenceable(32) %13, ptr noundef @__func__._ZN12_GLOBAL__N_127validateFindingContoursMetaEiii, ptr noundef @.str.3, i32 noundef 40) #18
          to label %65 unwind label %70

65:                                               ; preds = %64
  unreachable

66:                                               ; preds = %63
  %67 = landingpad { ptr, i32 }
          cleanup
  %68 = extractvalue { ptr, i32 } %67, 0
  store ptr %68, ptr %9, align 8
  %69 = extractvalue { ptr, i32 } %67, 1
  store i32 %69, ptr %10, align 4
  br label %74

70:                                               ; preds = %64
  %71 = landingpad { ptr, i32 }
          cleanup
  %72 = extractvalue { ptr, i32 } %71, 0
  store ptr %72, ptr %9, align 8
  %73 = extractvalue { ptr, i32 } %71, 1
  store i32 %73, ptr %10, align 4
  call void @_ZNSt7__cxx1112basic_stringIcSt11char_traitsIcESaIcEED1Ev(ptr noundef nonnull align 8 dereferenceable(32) %13) #3
  br label %74

74:                                               ; preds = %70, %66
  call void @_ZNSaIcED1Ev(ptr noundef nonnull align 1 dereferenceable(1) %14) #3
  br label %97

75:                                               ; preds = %62
  br label %76

76:                                               ; preds = %75
  br label %96

77:                                               ; preds = %34
  br label %78

78:                                               ; preds = %77
  %79 = load i32, ptr %4, align 4
  %80 = icmp eq i32 %79, 0
  br i1 %80, label %81, label %82

81:                                               ; preds = %78
  br label %94

82:                                               ; preds = %78
  call void @_ZNSaIcEC1Ev(ptr noundef nonnull align 1 dereferenceable(1) %16) #3
  invoke void @_ZNSt7__cxx1112basic_stringIcSt11char_traitsIcESaIcEEC1EPKcRKS3_(ptr noundef nonnull align 8 dereferenceable(32) %15, ptr noundef @.str.65, ptr noundef nonnull align 1 dereferenceable(1) %16)
          to label %83 unwind label %85

83:                                               ; preds = %82
  invoke void @_ZN2cv5errorEiRKNSt7__cxx1112basic_stringIcSt11char_traitsIcESaIcEEEPKcS9_i(i32 noundef -215, ptr noundef nonnull align 8 dereferenceable(32) %15, ptr noundef @__func__._ZN12_GLOBAL__N_127validateFindingContoursMetaEiii, ptr noundef @.str.3, i32 noundef 43) #18
          to label %84 unwind label %89

84:                                               ; preds = %83
  unreachable

85:                                               ; preds = %82
  %86 = landingpad { ptr, i32 }
          cleanup
  %87 = extractvalue { ptr, i32 } %86, 0
  store ptr %87, ptr %9, align 8
  %88 = extractvalue { ptr, i32 } %86, 1
  store i32 %88, ptr %10, align 4
  br label %93

89:                                               ; preds = %83
  %90 = landingpad { ptr, i32 }
          cleanup
  %91 = extractvalue { ptr, i32 } %90, 0
  store ptr %91, ptr %9, align 8
  %92 = extractvalue { ptr, i32 } %90, 1
  store i32 %92, ptr %10, align 4
  call void @_ZNSt7__cxx1112basic_stringIcSt11char_traitsIcESaIcEED1Ev(ptr noundef nonnull align 8 dereferenceable(32) %15) #3
  br label %93

93:                                               ; preds = %89, %85
  call void @_ZNSaIcED1Ev(ptr noundef nonnull align 1 dereferenceable(1) %16) #3
  br label %97

94:                                               ; preds = %81
  br label %95

95:                                               ; preds = %94
  br label %96

96:                                               ; preds = %95, %76, %57
  ret void

97:                                               ; preds = %93, %74, %55, %32
  %98 = load ptr, ptr %9, align 8
  %99 = load i32, ptr %10, align 4
  %100 = insertvalue { ptr, i32 } poison, ptr %98, 0
  %101 = insertvalue { ptr, i32 } %100, i32 %99, 1
  resume { ptr, i32 } %101
}