; Function Attrs: mustprogress uwtable
define internal fastcc void @_ZN12_GLOBAL__N_127validateFindingContoursMetaEiii(i32 noundef %0, i32 noundef %1, i32 noundef %2) unnamed_addr #3 personality ptr @__gxx_personality_v0 {
  %4 = alloca %"class.std::__cxx11::basic_string", align 8
  %5 = alloca %"class.std::allocator", align 1
  %6 = alloca %"class.std::__cxx11::basic_string", align 8
  %7 = alloca %"class.std::allocator", align 1
  %8 = alloca %"class.std::__cxx11::basic_string", align 8
  %9 = alloca %"class.std::allocator", align 1
  %10 = alloca %"class.std::__cxx11::basic_string", align 8
  %11 = alloca %"class.std::allocator", align 1
  %12 = icmp eq i32 %1, 1
  br i1 %12, label %20, label %13

13:                                               ; preds = %3
  call void @_ZNSaIcEC1Ev(ptr noundef nonnull align 1 dereferenceable(1) %5) #18
  invoke void @_ZNSt7__cxx1112basic_stringIcSt11char_traitsIcESaIcEEC1EPKcRKS3_(ptr noundef nonnull align 8 dereferenceable(32) %4, ptr noundef nonnull @.str.62, ptr noundef nonnull align 1 dereferenceable(1) %5)
          to label %14 unwind label %16

14:                                               ; preds = %13
  invoke void @_ZN2cv5errorEiRKNSt7__cxx1112basic_stringIcSt11char_traitsIcESaIcEEEPKcS9_i(i32 noundef -215, ptr noundef nonnull align 8 dereferenceable(32) %4, ptr noundef nonnull @__func__._ZN12_GLOBAL__N_127validateFindingContoursMetaEiii, ptr noundef nonnull @.str.3, i32 noundef 33) #22
          to label %15 unwind label %18

15:                                               ; preds = %14
  unreachable

16:                                               ; preds = %13
  %17 = landingpad { ptr, i32 }
          cleanup
  br label %49

18:                                               ; preds = %14
  %19 = landingpad { ptr, i32 }
          cleanup
  call void @_ZNSt7__cxx1112basic_stringIcSt11char_traitsIcESaIcEED1Ev(ptr noundef nonnull align 8 dereferenceable(32) %4) #18
  br label %49

20:                                               ; preds = %3
  switch i32 %2, label %39 [
    i32 2, label %21
    i32 4, label %30
  ]

21:                                               ; preds = %20
  %22 = and i32 %0, -5
  %or.cond = icmp eq i32 %22, 0
  br i1 %or.cond, label %48, label %23

23:                                               ; preds = %21
  call void @_ZNSaIcEC1Ev(ptr noundef nonnull align 1 dereferenceable(1) %7) #18
  invoke void @_ZNSt7__cxx1112basic_stringIcSt11char_traitsIcESaIcEEC1EPKcRKS3_(ptr noundef nonnull align 8 dereferenceable(32) %6, ptr noundef nonnull @.str.63, ptr noundef nonnull align 1 dereferenceable(1) %7)
          to label %24 unwind label %26

24:                                               ; preds = %23
  invoke void @_ZN2cv5errorEiRKNSt7__cxx1112basic_stringIcSt11char_traitsIcESaIcEEEPKcS9_i(i32 noundef -215, ptr noundef nonnull align 8 dereferenceable(32) %6, ptr noundef nonnull @__func__._ZN12_GLOBAL__N_127validateFindingContoursMetaEiii, ptr noundef nonnull @.str.3, i32 noundef 37) #22
          to label %25 unwind label %28

25:                                               ; preds = %24
  unreachable

26:                                               ; preds = %23
  %27 = landingpad { ptr, i32 }
          cleanup
  br label %49

28:                                               ; preds = %24
  %29 = landingpad { ptr, i32 }
          cleanup
  call void @_ZNSt7__cxx1112basic_stringIcSt11char_traitsIcESaIcEED1Ev(ptr noundef nonnull align 8 dereferenceable(32) %6) #18
  br label %49

30:                                               ; preds = %20
  %31 = icmp eq i32 %0, 4
  br i1 %31, label %48, label %32

32:                                               ; preds = %30
  call void @_ZNSaIcEC1Ev(ptr noundef nonnull align 1 dereferenceable(1) %9) #18
  invoke void @_ZNSt7__cxx1112basic_stringIcSt11char_traitsIcESaIcEEC1EPKcRKS3_(ptr noundef nonnull align 8 dereferenceable(32) %8, ptr noundef nonnull @.str.64, ptr noundef nonnull align 1 dereferenceable(1) %9)
          to label %33 unwind label %35

33:                                               ; preds = %32
  invoke void @_ZN2cv5errorEiRKNSt7__cxx1112basic_stringIcSt11char_traitsIcESaIcEEEPKcS9_i(i32 noundef -215, ptr noundef nonnull align 8 dereferenceable(32) %8, ptr noundef nonnull @__func__._ZN12_GLOBAL__N_127validateFindingContoursMetaEiii, ptr noundef nonnull @.str.3, i32 noundef 40) #22
          to label %34 unwind label %37

34:                                               ; preds = %33
  unreachable

35:                                               ; preds = %32
  %36 = landingpad { ptr, i32 }
          cleanup
  br label %49

37:                                               ; preds = %33
  %38 = landingpad { ptr, i32 }
          cleanup
  call void @_ZNSt7__cxx1112basic_stringIcSt11char_traitsIcESaIcEED1Ev(ptr noundef nonnull align 8 dereferenceable(32) %8) #18
  br label %49

39:                                               ; preds = %20
  %40 = icmp eq i32 %0, 0
  br i1 %40, label %48, label %41

41:                                               ; preds = %39
  call void @_ZNSaIcEC1Ev(ptr noundef nonnull align 1 dereferenceable(1) %11) #18
  invoke void @_ZNSt7__cxx1112basic_stringIcSt11char_traitsIcESaIcEEC1EPKcRKS3_(ptr noundef nonnull align 8 dereferenceable(32) %10, ptr noundef nonnull @.str.65, ptr noundef nonnull align 1 dereferenceable(1) %11)
          to label %42 unwind label %44

42:                                               ; preds = %41
  invoke void @_ZN2cv5errorEiRKNSt7__cxx1112basic_stringIcSt11char_traitsIcESaIcEEEPKcS9_i(i32 noundef -215, ptr noundef nonnull align 8 dereferenceable(32) %10, ptr noundef nonnull @__func__._ZN12_GLOBAL__N_127validateFindingContoursMetaEiii, ptr noundef nonnull @.str.3, i32 noundef 43) #22
          to label %43 unwind label %46

43:                                               ; preds = %42
  unreachable

44:                                               ; preds = %41
  %45 = landingpad { ptr, i32 }
          cleanup
  br label %49

46:                                               ; preds = %42
  %47 = landingpad { ptr, i32 }
          cleanup
  call void @_ZNSt7__cxx1112basic_stringIcSt11char_traitsIcESaIcEED1Ev(ptr noundef nonnull align 8 dereferenceable(32) %10) #18
  br label %49

48:                                               ; preds = %39, %30, %21
  ret void

49:                                               ; preds = %44, %46, %35, %37, %26, %28, %16, %18
  %.sink = phi ptr [ %5, %18 ], [ %5, %16 ], [ %7, %28 ], [ %7, %26 ], [ %9, %37 ], [ %9, %35 ], [ %11, %46 ], [ %11, %44 ]
  %.pn18.pn = phi { ptr, i32 } [ %19, %18 ], [ %17, %16 ], [ %29, %28 ], [ %27, %26 ], [ %38, %37 ], [ %36, %35 ], [ %47, %46 ], [ %45, %44 ]
  call void @_ZNSaIcED1Ev(ptr noundef nonnull align 1 dereferenceable(1) %.sink) #18
  resume { ptr, i32 } %.pn18.pn
}